target datalayout = "e-m:e-p270:32:32-p271:32:32-p272:64:64-i64:64-i128:128-f80:128-n8:16:32:64-S128"
target triple = "x86_64-pc-linux-gnu"

%struct.WarpedMotionParams = type { [8 x i32], i16, i16, i16, i16, i8, i8 }
%struct.AV1Common = type { %struct.CurrentFrame, %struct.aom_internal_error_info, i32, i32, i32, i32, i32, i32, i8, i8, [33 x i32], i32, ptr, ptr, [8 x i32], %struct.scale_factors, [8 x %struct.scale_factors], [8 x ptr], i32, i32, i32, %struct.FeatureFlags, %struct.CommonModeInfoParams, %struct.CommonQuantParams, %struct.segmentation, ptr, [8 x i8], %struct.loop_filter_info_n, %struct.loopfilter, [3 x %struct.RestorationInfo], ptr, ptr, %struct.yv12_buffer_config, %struct.CdefInfo, %struct.aom_film_grain_t, %struct.DeltaQInfo, [8 x %struct.WarpedMotionParams], %struct.SequenceHeader, ptr, ptr, %struct.CommonTileParams, ptr, %struct.CommonContexts, i32, [8 x i32], ptr, i32, [8 x i32], [8 x i8], i32, i32, i32, i32 }
%struct.CurrentFrame = type { i8, i8, i32, i32, i32, %struct.SkipModeInfo, i32, i32 }
%struct.SkipModeInfo = type { i32, i32, i32, i32 }
%struct.aom_internal_error_info = type { i32, i32, [200 x i8], i32, [1 x %struct.__jmp_buf_tag] }
%struct.__jmp_buf_tag = type { [8 x i64], i32, %struct.__sigset_t }
%struct.__sigset_t = type { [16 x i64] }
%struct.scale_factors = type { i32, i32, i32, i32, ptr, ptr }
%struct.FeatureFlags = type { i8, i8, i8, i8, i8, i8, i8, i8, i8, i8, i8, i8, i8, i8, i32, i32, i8 }
%struct.CommonModeInfoParams = type { i32, i32, i32, i32, i32, ptr, i32, i32, i8, ptr, i32, i32, ptr, ptr, ptr, ptr }
%struct.CommonQuantParams = type { i32, i32, i32, i32, i32, i32, [8 x [2 x i16]], [8 x [2 x i16]], [8 x [2 x i16]], [16 x [3 x [19 x ptr]]], [16 x [3 x [19 x ptr]]], [8 x [19 x ptr]], [8 x [19 x ptr]], [8 x [19 x ptr]], i8, i32, i32, i32 }
%struct.segmentation = type { i8, i8, i8, i8, [8 x [8 x i16]], [8 x i32], i32, i8 }
%struct.loop_filter_info_n = type { [64 x %struct.loop_filter_thresh], [3 x [8 x [2 x [8 x [2 x i8]]]]] }
%struct.loop_filter_thresh = type { [16 x i8], [16 x i8], [16 x i8] }
%struct.loopfilter = type { [2 x i32], i32, i32, i32, i8, i8, [8 x i8], [2 x i8], i32 }
%struct.RestorationInfo = type { i32, i32, i32, i32, i32, ptr, %struct.RestorationStripeBoundaries, i32 }
%struct.RestorationStripeBoundaries = type { ptr, ptr, i32, i32 }
%struct.CdefInfo = type { i32, i32, [16 x i32], [16 x i32], i32 }
%struct.aom_film_grain_t = type { i32, i32, [14 x [2 x i32]], i32, [10 x [2 x i32]], i32, [10 x [2 x i32]], i32, i32, i32, [24 x i32], [25 x i32], [25 x i32], i32, i32, i32, i32, i32, i32, i32, i32, i32, i32, i32, i32, i16 }
%struct.DeltaQInfo = type { i32, i32, i32, i32, i32 }
%struct.SequenceHeader = type { i32, i32, i32, i32, i8, i32, i32, i8, i32, i32, %struct.OrderHintInfo, i8, i8, i8, i8, i8, i8, i8, i8, i8, i8, i8, i8, i8, i8, i32, i8, i8, i32, i32, i32, i32, i32, i32, i32, i8, i8, i32, [32 x i32], i32, %struct.aom_timing, i8, %struct.aom_dec_model_info, i8, [32 x i8], [32 x i8], [33 x %struct.aom_dec_model_op_parameters] }
%struct.OrderHintInfo = type { i32, i32, i32, i32 }
%struct.aom_timing = type { i32, i32, i32, i32 }
%struct.aom_dec_model_info = type { i32, i32, i32, i32 }
%struct.aom_dec_model_op_parameters = type { i32, i64, i64, i32, i32, i32, i32, i32 }
%struct.CommonTileParams = type { i32, i32, i32, i32, i32, i32, i32, i32, i32, i32, i32, i32, i32, i32, i32, [65 x i32], [65 x i32], i32, i32 }
%struct.CommonContexts = type { ptr, [3 x ptr], ptr, i32, i32, i32 }
%struct.yv12_buffer_config = type { %union.anon, %union.anon.0, %union.anon.2, %union.anon.4, %union.anon.6, %union.anon.8, i32, [3 x ptr], ptr, i32, ptr, i64, i32, i64, i32, i32, i32, i32, i32, i32, i8, i32, i32, i32, i32, i32, i32, ptr }
%union.anon = type { %struct.anon }
%struct.anon = type { i32, i32 }
%union.anon.0 = type { %struct.anon.1 }
%struct.anon.1 = type { i32, i32 }
%union.anon.2 = type { %struct.anon.3 }
%struct.anon.3 = type { i32, i32 }
%union.anon.4 = type { %struct.anon.5 }
%struct.anon.5 = type { i32, i32 }
%union.anon.6 = type { %struct.anon.7 }
%struct.anon.7 = type { i32, i32 }
%union.anon.8 = type { %struct.anon.9 }
%struct.anon.9 = type { ptr, ptr, ptr }
%struct.RefCntBuffer = type { i32, i32, [7 x i32], i32, [7 x i32], ptr, ptr, %struct.segmentation, i32, i32, i32, i32, [8 x %struct.WarpedMotionParams], i32, i8, %struct.aom_film_grain_t, %struct.aom_codec_frame_buffer, %struct.yv12_buffer_config, i8, [4 x i32], [8 x i8], [2 x i8], %struct.frame_contexts }
%struct.aom_codec_frame_buffer = type { ptr, i64, ptr }
%struct.frame_contexts = type { [5 x [13 x [3 x i16]]], [5 x [2 x [9 x [3 x i16]]]], [2 x [3 x [3 x i16]]], [2 x [2 x [6 x i16]]], [2 x [2 x [7 x i16]]], [2 x [2 x [8 x i16]]], [2 x [2 x [9 x i16]]], [2 x [2 x [10 x i16]]], [2 x [2 x [11 x i16]]], [2 x [2 x [12 x i16]]], [5 x [2 x [4 x [4 x i16]]]], [5 x [2 x [42 x [5 x i16]]]], [5 x [2 x [21 x [5 x i16]]]], [6 x [3 x i16]], [2 x [3 x i16]], [6 x [3 x i16]], [3 x [3 x i16]], [8 x [9 x i16]], [22 x [3 x i16]], [22 x [17 x i16]], [4 x [3 x i16]], [22 x [3 x i16]], [4 x [5 x i16]], [22 x [4 x i16]], [22 x [3 x i16]], [7 x [8 x i16]], [7 x [8 x i16]], [7 x [5 x [9 x i16]]], [7 x [5 x [9 x i16]]], [7 x [3 x [3 x i16]]], [2 x [3 x i16]], [5 x [3 x i16]], [3 x [6 x [3 x i16]]], [5 x [3 x i16]], [3 x [3 x [3 x i16]]], [3 x [3 x [3 x i16]]], [3 x [2 x [3 x i16]]], [21 x [3 x i16]], [6 x [3 x i16]], [6 x [3 x i16]], [3 x [3 x i16]], [3 x [3 x i16]], [4 x [3 x i16]], %struct.nmv_context, %struct.nmv_context, [3 x i16], %struct.segmentation_probs, [22 x [3 x i16]], [6 x i16], [4 x i16], [3 x i16], [3 x i16], [4 x [14 x i16]], [2 x [13 x [15 x i16]]], [20 x [11 x i16]], [16 x [4 x i16]], [5 x [5 x [14 x i16]]], [8 x [8 x i16]], [4 x [3 x [4 x i16]]], [5 x i16], [4 x [5 x i16]], [5 x i16], [3 x [4 x [13 x [17 x i16]]]], [4 x [4 x [17 x i16]]], [9 x i16], [6 x [17 x i16]], i32 }
%struct.nmv_context = type { [5 x i16], [2 x %struct.nmv_component] }
%struct.nmv_component = type { [12 x i16], [2 x [5 x i16]], [5 x i16], [3 x i16], [3 x i16], [3 x i16], [3 x i16], [10 x [3 x i16]] }
%struct.segmentation_probs = type { [9 x i16], [3 x [3 x i16]], [3 x [9 x i16]] }

@.str.34 = private unnamed_addr constant [35 x i8] c"Failed to allocate context buffers\00", align 1
@.str.37 = private unnamed_addr constant [28 x i8] c"Failed to allocate buf->mvs\00", align 1
@.str.38 = private unnamed_addr constant [32 x i8] c"Failed to allocate buf->seg_map\00", align 1
@.str.39 = private unnamed_addr constant [31 x i8] c"Failed to allocate cm->tpl_mvs\00", align 1

; Function Attrs: nounwind uwtable
define internal void @ensure_mv_buffer(ptr noundef %0, ptr noundef %1) #0 {
  %3 = alloca ptr, align 8
  %4 = alloca ptr, align 8
  %5 = alloca i32, align 4
  %6 = alloca i32, align 4
  %7 = alloca ptr, align 8
  %8 = alloca i32, align 4
  %9 = alloca i32, align 4
  store ptr %0, ptr %3, align 8
  store ptr %1, ptr %4, align 8
  %10 = load ptr, ptr %3, align 8
  %11 = getelementptr inbounds nuw %struct.RefCntBuffer, ptr %10, i32 0, i32 8
  %12 = load i32, ptr %11, align 4
  store i32 %12, ptr %5, align 4
  %13 = load ptr, ptr %3, align 8
  %14 = getelementptr inbounds nuw %struct.RefCntBuffer, ptr %13, i32 0, i32 9
  %15 = load i32, ptr %14, align 8
  store i32 %15, ptr %6, align 4
  %16 = load ptr, ptr %4, align 8
  %17 = getelementptr inbounds nuw %struct.AV1Common, ptr %16, i32 0, i32 22
  store ptr %17, ptr %7, align 8
  %18 = load ptr, ptr %3, align 8
  %19 = getelementptr inbounds nuw %struct.RefCntBuffer, ptr %18, i32 0, i32 5
  %20 = load ptr, ptr %19, align 8
  %21 = icmp eq ptr %20, null
  br i1 %21, label %34, label %22

22:                                               ; preds = %2
  %23 = load i32, ptr %5, align 4
  %24 = load ptr, ptr %7, align 8
  %25 = getelementptr inbounds nuw %struct.CommonModeInfoParams, ptr %24, i32 0, i32 3
  %26 = load i32, ptr %25, align 4
  %27 = icmp ne i32 %23, %26
  br i1 %27, label %34, label %28

28:                                               ; preds = %22
  %29 = load i32, ptr %6, align 4
  %30 = load ptr, ptr %7, align 8
  %31 = getelementptr inbounds nuw %struct.CommonModeInfoParams, ptr %30, i32 0, i32 4
  %32 = load i32, ptr %31, align 8
  %33 = icmp ne i32 %29, %32
  br i1 %33, label %34, label %97

34:                                               ; preds = %28, %22, %2
  %35 = load ptr, ptr %3, align 8
  %36 = getelementptr inbounds nuw %struct.RefCntBuffer, ptr %35, i32 0, i32 5
  %37 = load ptr, ptr %36, align 8
  call void @aom_free(ptr noundef %37)
  %38 = load ptr, ptr %7, align 8
  %39 = getelementptr inbounds nuw %struct.CommonModeInfoParams, ptr %38, i32 0, i32 3
  %40 = load i32, ptr %39, align 4
  %41 = load ptr, ptr %3, align 8
  %42 = getelementptr inbounds nuw %struct.RefCntBuffer, ptr %41, i32 0, i32 8
  store i32 %40, ptr %42, align 4
  %43 = load ptr, ptr %7, align 8
  %44 = getelementptr inbounds nuw %struct.CommonModeInfoParams, ptr %43, i32 0, i32 4
  %45 = load i32, ptr %44, align 8
  %46 = load ptr, ptr %3, align 8
  %47 = getelementptr inbounds nuw %struct.RefCntBuffer, ptr %46, i32 0, i32 9
  store i32 %45, ptr %47, align 8
  br label %48

48:                                               ; preds = %34
  %49 = load ptr, ptr %7, align 8
  %50 = getelementptr inbounds nuw %struct.CommonModeInfoParams, ptr %49, i32 0, i32 3
  %51 = load i32, ptr %50, align 4
  %52 = add nsw i32 %51, 1
  %53 = ashr i32 %52, 1
  %54 = load ptr, ptr %7, align 8
  %55 = getelementptr inbounds nuw %struct.CommonModeInfoParams, ptr %54, i32 0, i32 4
  %56 = load i32, ptr %55, align 8
  %57 = add nsw i32 %56, 1
  %58 = ashr i32 %57, 1
  %59 = mul nsw i32 %53, %58
  %60 = sext i32 %59 to i64
  %61 = call ptr @aom_calloc(i64 noundef %60, i64 noundef 8)
  %62 = load ptr, ptr %3, align 8
  %63 = getelementptr inbounds nuw %struct.RefCntBuffer, ptr %62, i32 0, i32 5
  store ptr %61, ptr %63, align 8
  %64 = load ptr, ptr %3, align 8
  %65 = getelementptr inbounds nuw %struct.RefCntBuffer, ptr %64, i32 0, i32 5
  %66 = load ptr, ptr %65, align 8
  %67 = icmp ne ptr %66, null
  br i1 %67, label %71, label %68

68:                                               ; preds = %48
  %69 = load ptr, ptr %4, align 8
  %70 = getelementptr inbounds nuw %struct.AV1Common, ptr %69, i32 0, i32 1
  call void (ptr, i32, ptr, ...) @aom_internal_error(ptr noundef %70, i32 noundef 2, ptr noundef @.str.37)
  br label %71

71:                                               ; preds = %68, %48
  br label %72

72:                                               ; preds = %71
  %73 = load ptr, ptr %3, align 8
  %74 = getelementptr inbounds nuw %struct.RefCntBuffer, ptr %73, i32 0, i32 6
  %75 = load ptr, ptr %74, align 8
  call void @aom_free(ptr noundef %75)
  br label %76

76:                                               ; preds = %72
  %77 = load ptr, ptr %7, align 8
  %78 = getelementptr inbounds nuw %struct.CommonModeInfoParams, ptr %77, i32 0, i32 3
  %79 = load i32, ptr %78, align 4
  %80 = load ptr, ptr %7, align 8
  %81 = getelementptr inbounds nuw %struct.CommonModeInfoParams, ptr %80, i32 0, i32 4
  %82 = load i32, ptr %81, align 8
  %83 = mul nsw i32 %79, %82
  %84 = sext i32 %83 to i64
  %85 = call ptr @aom_calloc(i64 noundef %84, i64 noundef 1)
  %86 = load ptr, ptr %3, align 8
  %87 = getelementptr inbounds nuw %struct.RefCntBuffer, ptr %86, i32 0, i32 6
  store ptr %85, ptr %87, align 8
  %88 = load ptr, ptr %3, align 8
  %89 = getelementptr inbounds nuw %struct.RefCntBuffer, ptr %88, i32 0, i32 6
  %90 = load ptr, ptr %89, align 8
  %91 = icmp ne ptr %90, null
  br i1 %91, label %95, label %92

92:                                               ; preds = %76
  %93 = load ptr, ptr %4, align 8
  %94 = getelementptr inbounds nuw %struct.AV1Common, ptr %93, i32 0, i32 1
  call void (ptr, i32, ptr, ...) @aom_internal_error(ptr noundef %94, i32 noundef 2, ptr noundef @.str.38)
  br label %95

95:                                               ; preds = %92, %76
  br label %96

96:                                               ; preds = %95
  br label %97

97:                                               ; preds = %96, %28
  %98 = load ptr, ptr %7, align 8
  %99 = getelementptr inbounds nuw %struct.CommonModeInfoParams, ptr %98, i32 0, i32 3
  %100 = load i32, ptr %99, align 4
  %101 = add nsw i32 %100, 32
  %102 = ashr i32 %101, 1
  %103 = load ptr, ptr %7, align 8
  %104 = getelementptr inbounds nuw %struct.CommonModeInfoParams, ptr %103, i32 0, i32 11
  %105 = load i32, ptr %104, align 4
  %106 = ashr i32 %105, 1
  %107 = mul nsw i32 %102, %106
  store i32 %107, ptr %8, align 4
  %108 = load ptr, ptr %4, align 8
  %109 = getelementptr inbounds nuw %struct.AV1Common, ptr %108, i32 0, i32 45
  %110 = load ptr, ptr %109, align 8
  %111 = icmp eq ptr %110, null
  %112 = zext i1 %111 to i32
  store i32 %112, ptr %9, align 4
  %113 = load ptr, ptr %4, align 8
  %114 = getelementptr inbounds nuw %struct.AV1Common, ptr %113, i32 0, i32 45
  %115 = load ptr, ptr %114, align 8
  %116 = icmp ne ptr %115, null
  br i1 %116, label %117, label %126

117:                                              ; preds = %97
  %118 = load ptr, ptr %4, align 8
  %119 = getelementptr inbounds nuw %struct.AV1Common, ptr %118, i32 0, i32 46
  %120 = load i32, ptr %119, align 16
  %121 = load i32, ptr %8, align 4
  %122 = icmp slt i32 %120, %121
  %123 = zext i1 %122 to i32
  %124 = load i32, ptr %9, align 4
  %125 = or i32 %124, %123
  store i32 %125, ptr %9, align 4
  br label %126

126:                                              ; preds = %117, %97
  %127 = load i32, ptr %9, align 4
  %128 = icmp ne i32 %127, 0
  br i1 %128, label %129, label %151

129:                                              ; preds = %126
  %130 = load ptr, ptr %4, align 8
  %131 = getelementptr inbounds nuw %struct.AV1Common, ptr %130, i32 0, i32 45
  %132 = load ptr, ptr %131, align 8
  call void @aom_free(ptr noundef %132)
  br label %133

133:                                              ; preds = %129
  %134 = load i32, ptr %8, align 4
  %135 = sext i32 %134 to i64
  %136 = call ptr @aom_calloc(i64 noundef %135, i64 noundef 8)
  %137 = load ptr, ptr %4, align 8
  %138 = getelementptr inbounds nuw %struct.AV1Common, ptr %137, i32 0, i32 45
  store ptr %136, ptr %138, align 8
  %139 = load ptr, ptr %4, align 8
  %140 = getelementptr inbounds nuw %struct.AV1Common, ptr %139, i32 0, i32 45
  %141 = load ptr, ptr %140, align 8
  %142 = icmp ne ptr %141, null
  br i1 %142, label %146, label %143

143:                                              ; preds = %133
  %144 = load ptr, ptr %4, align 8
  %145 = getelementptr inbounds nuw %struct.AV1Common, ptr %144, i32 0, i32 1
  call void (ptr, i32, ptr, ...) @aom_internal_error(ptr noundef %145, i32 noundef 2, ptr noundef @.str.39)
  br label %146

146:                                              ; preds = %143, %133
  br label %147

147:                                              ; preds = %146
  %148 = load i32, ptr %8, align 4
  %149 = load ptr, ptr %4, align 8
  %150 = getelementptr inbounds nuw %struct.AV1Common, ptr %149, i32 0, i32 46
  store i32 %148, ptr %150, align 16
  br label %151

151:                                              ; preds = %147, %126
  ret void
}

; Function Attrs: nounwind uwtable
define internal void @resize_context_buffers(ptr noundef %0, i32 noundef %1, i32 noundef %2) #0 {
  %4 = alloca ptr, align 8
  %5 = alloca i32, align 4
  %6 = alloca i32, align 4
  %7 = alloca i32, align 4
  %8 = alloca i32, align 4
  store ptr %0, ptr %4, align 8
  store i32 %1, ptr %5, align 4
  store i32 %2, ptr %6, align 4
  %9 = load ptr, ptr %4, align 8
  %10 = getelementptr inbounds nuw %struct.AV1Common, ptr %9, i32 0, i32 2
  %11 = load i32, ptr %10, align 8
  %12 = load i32, ptr %5, align 4
  %13 = icmp ne i32 %11, %12
  br i1 %13, label %20, label %14

14:                                               ; preds = %3
  %15 = load ptr, ptr %4, align 8
  %16 = getelementptr inbounds nuw %struct.AV1Common, ptr %15, i32 0, i32 3
  %17 = load i32, ptr %16, align 4
  %18 = load i32, ptr %6, align 4
  %19 = icmp ne i32 %17, %18
  br i1 %19, label %20, label %74

20:                                               ; preds = %14, %3
  %21 = load i32, ptr %6, align 4
  %22 = add nsw i32 %21, 3
  %23 = and i32 %22, -4
  %24 = ashr i32 %23, 2
  store i32 %24, ptr %7, align 4
  %25 = load i32, ptr %5, align 4
  %26 = add nsw i32 %25, 3
  %27 = and i32 %26, -4
  %28 = ashr i32 %27, 2
  store i32 %28, ptr %8, align 4
  %29 = load i32, ptr %8, align 4
  %30 = load ptr, ptr %4, align 8
  %31 = getelementptr inbounds nuw %struct.AV1Common, ptr %30, i32 0, i32 22
  %32 = getelementptr inbounds nuw %struct.CommonModeInfoParams, ptr %31, i32 0, i32 4
  %33 = load i32, ptr %32, align 8
  %34 = icmp sgt i32 %29, %33
  br i1 %34, label %42, label %35

35:                                               ; preds = %20
  %36 = load i32, ptr %7, align 4
  %37 = load ptr, ptr %4, align 8
  %38 = getelementptr inbounds nuw %struct.AV1Common, ptr %37, i32 0, i32 22
  %39 = getelementptr inbounds nuw %struct.CommonModeInfoParams, ptr %38, i32 0, i32 3
  %40 = load i32, ptr %39, align 4
  %41 = icmp sgt i32 %36, %40
  br i1 %41, label %42, label %56

42:                                               ; preds = %35, %20
  %43 = load ptr, ptr %4, align 8
  %44 = load i32, ptr %5, align 4
  %45 = load i32, ptr %6, align 4
  %46 = call i32 @av1_alloc_context_buffers(ptr noundef %43, i32 noundef %44, i32 noundef %45)
  %47 = icmp ne i32 %46, 0
  br i1 %47, label %48, label %55

48:                                               ; preds = %42
  %49 = load ptr, ptr %4, align 8
  %50 = getelementptr inbounds nuw %struct.AV1Common, ptr %49, i32 0, i32 2
  store i32 0, ptr %50, align 8
  %51 = load ptr, ptr %4, align 8
  %52 = getelementptr inbounds nuw %struct.AV1Common, ptr %51, i32 0, i32 3
  store i32 0, ptr %52, align 4
  %53 = load ptr, ptr %4, align 8
  %54 = getelementptr inbounds nuw %struct.AV1Common, ptr %53, i32 0, i32 1
  call void (ptr, i32, ptr, ...) @aom_internal_error(ptr noundef %54, i32 noundef 2, ptr noundef @.str.34)
  br label %55

55:                                               ; preds = %48, %42
  br label %65

56:                                               ; preds = %35
  %57 = load ptr, ptr %4, align 8
  %58 = getelementptr inbounds nuw %struct.AV1Common, ptr %57, i32 0, i32 22
  %59 = getelementptr inbounds nuw %struct.CommonModeInfoParams, ptr %58, i32 0, i32 15
  %60 = load ptr, ptr %59, align 8
  %61 = load ptr, ptr %4, align 8
  %62 = getelementptr inbounds nuw %struct.AV1Common, ptr %61, i32 0, i32 22
  %63 = load i32, ptr %5, align 4
  %64 = load i32, ptr %6, align 4
  call void %60(ptr noundef %62, i32 noundef %63, i32 noundef %64)
  br label %65

65:                                               ; preds = %56, %55
  %66 = load ptr, ptr %4, align 8
  %67 = getelementptr inbounds nuw %struct.AV1Common, ptr %66, i32 0, i32 22
  call void @av1_init_mi_buffers(ptr noundef %67)
  %68 = load i32, ptr %5, align 4
  %69 = load ptr, ptr %4, align 8
  %70 = getelementptr inbounds nuw %struct.AV1Common, ptr %69, i32 0, i32 2
  store i32 %68, ptr %70, align 8
  %71 = load i32, ptr %6, align 4
  %72 = load ptr, ptr %4, align 8
  %73 = getelementptr inbounds nuw %struct.AV1Common, ptr %72, i32 0, i32 3
  store i32 %71, ptr %73, align 4
  br label %74

74:                                               ; preds = %65, %14
  %75 = load ptr, ptr %4, align 8
  %76 = getelementptr inbounds nuw %struct.AV1Common, ptr %75, i32 0, i32 13
  %77 = load ptr, ptr %76, align 8
  %78 = load ptr, ptr %4, align 8
  call void @ensure_mv_buffer(ptr noundef %77, ptr noundef %78)
  %79 = load ptr, ptr %4, align 8
  %80 = getelementptr inbounds nuw %struct.AV1Common, ptr %79, i32 0, i32 2
  %81 = load i32, ptr %80, align 8
  %82 = load ptr, ptr %4, align 8
  %83 = getelementptr inbounds nuw %struct.AV1Common, ptr %82, i32 0, i32 13
  %84 = load ptr, ptr %83, align 8
  %85 = getelementptr inbounds nuw %struct.RefCntBuffer, ptr %84, i32 0, i32 10
  store i32 %81, ptr %85, align 4
  %86 = load ptr, ptr %4, align 8
  %87 = getelementptr inbounds nuw %struct.AV1Common, ptr %86, i32 0, i32 3
  %88 = load i32, ptr %87, align 4
  %89 = load ptr, ptr %4, align 8
  %90 = getelementptr inbounds nuw %struct.AV1Common, ptr %89, i32 0, i32 13
  %91 = load ptr, ptr %90, align 8
  %92 = getelementptr inbounds nuw %struct.RefCntBuffer, ptr %91, i32 0, i32 11
  store i32 %88, ptr %92, align 8
  ret void
}