; Function Attrs: nounwind uwtable
define internal fastcc void @resize_context_buffers(ptr noundef %0, i32 noundef %1, i32 noundef %2) unnamed_addr #0 {
  %4 = getelementptr inbounds nuw i8, ptr %0, i64 456
  %5 = load i32, ptr %4, align 8
  %.not = icmp eq i32 %5, %1
  br i1 %.not, label %6, label %9

6:                                                ; preds = %3
  %7 = getelementptr inbounds nuw i8, ptr %0, i64 460
  %8 = load i32, ptr %7, align 4
  %.not30 = icmp eq i32 %8, %2
  br i1 %.not30, label %32, label %9

9:                                                ; preds = %6, %3
  %10 = add nsw i32 %1, 3
  %11 = ashr i32 %10, 2
  %12 = getelementptr inbounds nuw i8, ptr %0, i64 1064
  %13 = getelementptr inbounds nuw i8, ptr %0, i64 1080
  %14 = load i32, ptr %13, align 8
  %15 = icmp sgt i32 %11, %14
  br i1 %15, label %22, label %16

16:                                               ; preds = %9
  %17 = add nsw i32 %2, 3
  %18 = ashr i32 %17, 2
  %19 = getelementptr inbounds nuw i8, ptr %0, i64 1076
  %20 = load i32, ptr %19, align 4
  %21 = icmp sgt i32 %18, %20
  br i1 %21, label %22, label %27

22:                                               ; preds = %16, %9
  %23 = tail call i32 @av1_alloc_context_buffers(ptr noundef nonnull %0, i32 noundef %1, i32 noundef %2) #16
  %.not31 = icmp eq i32 %23, 0
  br i1 %.not31, label %30, label %24

24:                                               ; preds = %22
  store i32 0, ptr %4, align 8
  %25 = getelementptr inbounds nuw i8, ptr %0, i64 460
  store i32 0, ptr %25, align 4
  %26 = getelementptr inbounds nuw i8, ptr %0, i64 40
  tail call void (ptr, i32, ptr, ...) @aom_internal_error(ptr noundef nonnull %26, i32 noundef 2, ptr noundef nonnull @.str.34) #16
  br label %30

27:                                               ; preds = %16
  %28 = getelementptr inbounds nuw i8, ptr %0, i64 1152
  %29 = load ptr, ptr %28, align 8
  tail call void %29(ptr noundef nonnull %12, i32 noundef %1, i32 noundef %2) #16
  br label %30

30:                                               ; preds = %22, %24, %27
  tail call void @av1_init_mi_buffers(ptr noundef nonnull %12) #16
  store i32 %1, ptr %4, align 8
  %31 = getelementptr inbounds nuw i8, ptr %0, i64 460
  store i32 %2, ptr %31, align 4
  br label %32

32:                                               ; preds = %30, %6
  %33 = getelementptr inbounds nuw i8, ptr %0, i64 632
  %34 = load ptr, ptr %33, align 8
  %35 = getelementptr inbounds nuw i8, ptr %34, i64 260
  %36 = getelementptr inbounds nuw i8, ptr %34, i64 264
  %37 = load i32, ptr %36, align 8
  %38 = getelementptr inbounds nuw i8, ptr %34, i64 72
  %39 = load ptr, ptr %38, align 8
  %40 = icmp eq ptr %39, null
  br i1 %40, label %48, label %41

41:                                               ; preds = %32
  %42 = load i32, ptr %35, align 4
  %43 = getelementptr inbounds nuw i8, ptr %0, i64 1076
  %44 = load i32, ptr %43, align 4
  %.not.i = icmp eq i32 %42, %44
  br i1 %.not.i, label %45, label %48

45:                                               ; preds = %41
  %46 = getelementptr inbounds nuw i8, ptr %0, i64 1080
  %47 = load i32, ptr %46, align 8
  %.not38.i = icmp eq i32 %37, %47
  br i1 %.not38.i, label %73, label %48

48:                                               ; preds = %45, %41, %32
  tail call void @aom_free(ptr noundef %39) #16
  %49 = getelementptr inbounds nuw i8, ptr %0, i64 1076
  %50 = load i32, ptr %49, align 4
  store i32 %50, ptr %35, align 4
  %51 = getelementptr inbounds nuw i8, ptr %0, i64 1080
  %52 = load i32, ptr %51, align 8
  store i32 %52, ptr %36, align 8
  %53 = load i32, ptr %49, align 4
  %54 = add nsw i32 %53, 1
  %55 = ashr i32 %54, 1
  %56 = add nsw i32 %52, 1
  %57 = ashr i32 %56, 1
  %58 = mul nsw i32 %55, %57
  %59 = sext i32 %58 to i64
  %60 = tail call ptr @aom_calloc(i64 noundef %59, i64 noundef 8) #16
  store ptr %60, ptr %38, align 8
  %.not39.i = icmp eq ptr %60, null
  br i1 %.not39.i, label %61, label %63

61:                                               ; preds = %48
  %62 = getelementptr inbounds nuw i8, ptr %0, i64 40
  tail call void (ptr, i32, ptr, ...) @aom_internal_error(ptr noundef nonnull %62, i32 noundef 2, ptr noundef nonnull @.str.37) #16
  br label %63

63:                                               ; preds = %61, %48
  %64 = getelementptr inbounds nuw i8, ptr %34, i64 80
  %65 = load ptr, ptr %64, align 8
  tail call void @aom_free(ptr noundef %65) #16
  %66 = load i32, ptr %49, align 4
  %67 = load i32, ptr %51, align 8
  %68 = mul nsw i32 %67, %66
  %69 = sext i32 %68 to i64
  %70 = tail call ptr @aom_calloc(i64 noundef %69, i64 noundef 1) #16
  store ptr %70, ptr %64, align 8
  %.not40.i = icmp eq ptr %70, null
  br i1 %.not40.i, label %71, label %73

71:                                               ; preds = %63
  %72 = getelementptr inbounds nuw i8, ptr %0, i64 40
  tail call void (ptr, i32, ptr, ...) @aom_internal_error(ptr noundef nonnull %72, i32 noundef 2, ptr noundef nonnull @.str.38) #16
  br label %73

73:                                               ; preds = %71, %63, %45
  %74 = getelementptr inbounds nuw i8, ptr %0, i64 1076
  %75 = load i32, ptr %74, align 4
  %76 = add nsw i32 %75, 32
  %77 = ashr i32 %76, 1
  %78 = getelementptr inbounds nuw i8, ptr %0, i64 1124
  %79 = load i32, ptr %78, align 4
  %80 = ashr i32 %79, 1
  %81 = mul nsw i32 %77, %80
  %82 = getelementptr inbounds nuw i8, ptr %0, i64 27832
  %83 = load ptr, ptr %82, align 8
  %84 = icmp eq ptr %83, null
  br i1 %84, label %.thread.i, label %85

85:                                               ; preds = %73
  %86 = getelementptr inbounds nuw i8, ptr %0, i64 27840
  %87 = load i32, ptr %86, align 16
  %88 = icmp slt i32 %87, %81
  br i1 %88, label %.thread.i, label %ensure_mv_buffer.exit

.thread.i:                                        ; preds = %85, %73
  tail call void @aom_free(ptr noundef %83) #16
  %89 = sext i32 %81 to i64
  %90 = tail call ptr @aom_calloc(i64 noundef %89, i64 noundef 8) #16
  store ptr %90, ptr %82, align 8
  %.not42.i = icmp eq ptr %90, null
  br i1 %.not42.i, label %91, label %93

91:                                               ; preds = %.thread.i
  %92 = getelementptr inbounds nuw i8, ptr %0, i64 40
  tail call void (ptr, i32, ptr, ...) @aom_internal_error(ptr noundef nonnull %92, i32 noundef 2, ptr noundef nonnull @.str.39) #16
  br label %93

93:                                               ; preds = %91, %.thread.i
  %94 = getelementptr inbounds nuw i8, ptr %0, i64 27840
  store i32 %81, ptr %94, align 16
  br label %ensure_mv_buffer.exit

ensure_mv_buffer.exit:                            ; preds = %85, %93
  %95 = load i32, ptr %4, align 8
  %96 = load ptr, ptr %33, align 8
  %97 = getelementptr inbounds nuw i8, ptr %96, i64 268
  store i32 %95, ptr %97, align 4
  %98 = getelementptr inbounds nuw i8, ptr %0, i64 460
  %99 = load i32, ptr %98, align 4
  %100 = load ptr, ptr %33, align 8
  %101 = getelementptr inbounds nuw i8, ptr %100, i64 272
  store i32 %99, ptr %101, align 8
  ret void
}